target datalayout = "e-m:e-p270:32:32-p271:32:32-p272:64:64-i64:64-i128:128-f80:128-n8:16:32:64-S128"
target triple = "x86_64-pc-linux-gnu"

%struct._object = type { %union.anon, ptr }
%union.anon = type { i64 }
%struct.PyDateTime_Date = type { %struct._object, i64, i8, [4 x i8] }

@.str.23 = private unnamed_addr constant [6 x i8] c"(iii)\00", align 1

; Function Attrs: nounwind uwtable
define internal ptr @test_PyDateTime_GET(ptr noundef %0, ptr noundef %1) #0 {
  %3 = alloca ptr, align 8
  %4 = alloca ptr, align 8
  %5 = alloca i32, align 4
  %6 = alloca i32, align 4
  %7 = alloca i32, align 4
  store ptr %0, ptr %3, align 8, !tbaa !3
  store ptr %1, ptr %4, align 8, !tbaa !3
  call void @llvm.lifetime.start.p0(i64 4, ptr %5) #6
  call void @llvm.lifetime.start.p0(i64 4, ptr %6) #6
  call void @llvm.lifetime.start.p0(i64 4, ptr %7) #6
  %8 = load ptr, ptr %4, align 8, !tbaa !3
  %9 = getelementptr inbounds nuw %struct.PyDateTime_Date, ptr %8, i32 0, i32 3
  %10 = getelementptr [4 x i8], ptr %9, i64 0, i64 0
  %11 = load i8, ptr %10, align 1, !tbaa !8
  %12 = zext i8 %11 to i32
  %13 = shl i32 %12, 8
  %14 = load ptr, ptr %4, align 8, !tbaa !3
  %15 = getelementptr inbounds nuw %struct.PyDateTime_Date, ptr %14, i32 0, i32 3
  %16 = getelementptr [4 x i8], ptr %15, i64 0, i64 1
  %17 = load i8, ptr %16, align 1, !tbaa !8
  %18 = zext i8 %17 to i32
  %19 = or i32 %13, %18
  store i32 %19, ptr %5, align 4, !tbaa !9
  %20 = load ptr, ptr %4, align 8, !tbaa !3
  %21 = getelementptr inbounds nuw %struct.PyDateTime_Date, ptr %20, i32 0, i32 3
  %22 = getelementptr [4 x i8], ptr %21, i64 0, i64 2
  %23 = load i8, ptr %22, align 1, !tbaa !8
  %24 = zext i8 %23 to i32
  store i32 %24, ptr %6, align 4, !tbaa !9
  %25 = load ptr, ptr %4, align 8, !tbaa !3
  %26 = getelementptr inbounds nuw %struct.PyDateTime_Date, ptr %25, i32 0, i32 3
  %27 = getelementptr [4 x i8], ptr %26, i64 0, i64 3
  %28 = load i8, ptr %27, align 1, !tbaa !8
  %29 = zext i8 %28 to i32
  store i32 %29, ptr %7, align 4, !tbaa !9
  %30 = load i32, ptr %5, align 4, !tbaa !9
  %31 = load i32, ptr %6, align 4, !tbaa !9
  %32 = load i32, ptr %7, align 4, !tbaa !9
  %33 = call ptr (ptr, ...) @Py_BuildValue(ptr noundef @.str.23, i32 noundef %30, i32 noundef %31, i32 noundef %32)
  call void @llvm.lifetime.end.p0(i64 4, ptr %7) #6
  call void @llvm.lifetime.end.p0(i64 4, ptr %6) #6
  call void @llvm.lifetime.end.p0(i64 4, ptr %5) #6
  ret ptr %33
}