; Function Attrs: nounwind uwtable
define internal ptr @test_PyDateTime_GET(ptr readnone captures(none) %0, ptr noundef readonly captures(none) %1) #0 {
  %3 = getelementptr inbounds nuw i8, ptr %1, i64 25
  %4 = load i8, ptr %3, align 1, !tbaa !3
  %5 = zext i8 %4 to i32
  %6 = shl nuw nsw i32 %5, 8
  %7 = getelementptr i8, ptr %1, i64 26
  %8 = load i8, ptr %7, align 1, !tbaa !3
  %9 = zext i8 %8 to i32
  %10 = or disjoint i32 %6, %9
  %11 = getelementptr i8, ptr %1, i64 27
  %12 = load i8, ptr %11, align 1, !tbaa !3
  %13 = zext i8 %12 to i32
  %14 = getelementptr i8, ptr %1, i64 28
  %15 = load i8, ptr %14, align 1, !tbaa !3
  %16 = zext i8 %15 to i32
  %17 = tail call ptr (ptr, ...) @Py_BuildValue(ptr noundef nonnull @.str.23, i32 noundef %10, i32 noundef %13, i32 noundef %16) #4
  ret ptr %17
}